target datalayout = "e-m:e-p270:32:32-p271:32:32-p272:64:64-i64:64-i128:128-f80:128-n8:16:32:64-S128"
target triple = "x86_64-pc-linux-gnu"

%"struct.llvm::MachineSchedContext" = type { ptr, ptr, ptr, ptr, ptr, ptr, ptr, ptr }

@_ZTVN4llvm19MachineSchedContextE = unnamed_addr constant { [4 x ptr] } { [4 x ptr] [ptr null, ptr null, ptr @_ZN4llvm19MachineSchedContextD1Ev, ptr @_ZN4llvm19MachineSchedContextD0Ev] }, align 8

; Function Attrs: mustprogress nounwind uwtable
define linkonce_odr hidden void @_ZN4llvm12FunctionPassD2Ev(ptr noundef nonnull align 8 dereferenceable(28) %0) unnamed_addr #1 comdat align 2 {
  %2 = alloca ptr, align 8
  store ptr %0, ptr %2, align 8
  %3 = load ptr, ptr %2, align 8
  call void @_ZN4llvm4PassD2Ev(ptr noundef nonnull align 8 dereferenceable(28) %3) #2
  ret void
}

; Function Attrs: mustprogress nounwind uwtable
define dso_local void @_ZN4llvm19MachineSchedContextD2Ev(ptr noundef nonnull align 8 dereferenceable(64) %0) unnamed_addr #1 align 2 {
  %2 = alloca ptr, align 8
  store ptr %0, ptr %2, align 8
  %3 = load ptr, ptr %2, align 8
  store ptr getelementptr inbounds inrange(-16, 16) ({ [4 x ptr] }, ptr @_ZTVN4llvm19MachineSchedContextE, i32 0, i32 0, i32 2), ptr %3, align 8
  %4 = getelementptr inbounds nuw %"struct.llvm::MachineSchedContext", ptr %3, i32 0, i32 7
  %5 = load ptr, ptr %4, align 8
  %6 = icmp eq ptr %5, null
  br i1 %6, label %8, label %7

7:                                                ; preds = %1
  call void @_ZN4llvm17RegisterClassInfoD2Ev(ptr noundef nonnull align 8 dereferenceable(320) %5) #2
  call void @_ZdlPvm(ptr noundef %5, i64 noundef 320) #17
  br label %8

8:                                                ; preds = %7, %1
  ret void
}

; Function Attrs: mustprogress nounwind uwtable
define linkonce_odr hidden void @_ZN4llvm19MachineFunctionPassD2Ev(ptr noundef nonnull align 8 dereferenceable(56) %0) unnamed_addr #1 comdat align 2 {
  %2 = alloca ptr, align 8
  store ptr %0, ptr %2, align 8
  %3 = load ptr, ptr %2, align 8
  call void @_ZN4llvm12FunctionPassD2Ev(ptr noundef nonnull align 8 dereferenceable(28) %3) #2
  ret void
}

; Function Attrs: mustprogress nounwind uwtable
define internal void @_ZN12_GLOBAL__N_120MachineSchedulerBaseD2Ev(ptr noundef nonnull align 8 dereferenceable(120) %0) unnamed_addr #1 align 2 {
  %2 = alloca ptr, align 8
  store ptr %0, ptr %2, align 8
  %3 = load ptr, ptr %2, align 8
  %4 = getelementptr inbounds i8, ptr %3, i64 64
  call void @_ZN4llvm19MachineFunctionPassD2Ev(ptr noundef nonnull align 8 dereferenceable(56) %4) #2
  call void @_ZN4llvm19MachineSchedContextD2Ev(ptr noundef nonnull align 8 dereferenceable(64) %3) #2
  ret void
}

; Function Attrs: mustprogress nounwind uwtable
define internal void @_ZN12_GLOBAL__N_120PostMachineSchedulerD2Ev(ptr noundef nonnull align 8 dereferenceable(120) %0) unnamed_addr #1 align 2 {
  %2 = alloca ptr, align 8
  store ptr %0, ptr %2, align 8
  %3 = load ptr, ptr %2, align 8
  call void @_ZN12_GLOBAL__N_120MachineSchedulerBaseD2Ev(ptr noundef nonnull align 8 dereferenceable(120) %3) #2
  ret void
}